; Function Attrs: nofree norecurse nosync nounwind memory(argmem: readwrite) uwtable
define internal noundef i32 @pixelize_max16(ptr noundef readonly captures(none) %0, ptr noundef writeonly captures(none) %1, i64 noundef %2, i64 noundef %3, i32 noundef %4, i32 noundef %5) #4 {
  %7 = load i16, ptr %0, align 2, !tbaa !66
  %8 = icmp sgt i32 %5, 0
  br i1 %8, label %.preheader37.lr.ph, label %._crit_edge47

.preheader37.lr.ph:                               ; preds = %6
  %9 = icmp sgt i32 %4, 0
  %10 = lshr i64 %2, 1
  br i1 %9, label %.preheader37.us.preheader, label %._crit_edge47

.preheader37.us.preheader:                        ; preds = %.preheader37.lr.ph
  %wide.trip.count = zext nneg i32 %4 to i64
  br label %.preheader37.us

.preheader37.us:                                  ; preds = %.preheader37.us.preheader, %._crit_edge.us
  %.02942.us = phi i32 [ %15, %._crit_edge.us ], [ 0, %.preheader37.us.preheader ]
  %.03041.us = phi i16 [ %..1.us, %._crit_edge.us ], [ %7, %.preheader37.us.preheader ]
  %.03240.us = phi ptr [ %14, %._crit_edge.us ], [ %0, %.preheader37.us.preheader ]
  br label %11

11:                                               ; preds = %.preheader37.us, %11
  %indvars.iv = phi i64 [ 0, %.preheader37.us ], [ %indvars.iv.next, %11 ]
  %.138.us = phi i16 [ %.03041.us, %.preheader37.us ], [ %..1.us, %11 ]
  %12 = getelementptr inbounds nuw i16, ptr %.03240.us, i64 %indvars.iv
  %13 = load i16, ptr %12, align 2, !tbaa !66
  %..1.us = tail call i16 @llvm.umax.i16(i16 %13, i16 %.138.us)
  %indvars.iv.next = add nuw nsw i64 %indvars.iv, 1
  %exitcond.not = icmp eq i64 %indvars.iv.next, %wide.trip.count
  br i1 %exitcond.not, label %._crit_edge.us, label %11, !llvm.loop !82

._crit_edge.us:                                   ; preds = %11
  %14 = getelementptr inbounds nuw i16, ptr %.03240.us, i64 %10
  %15 = add nuw nsw i32 %.02942.us, 1
  %exitcond51.not = icmp eq i32 %15, %5
  br i1 %exitcond51.not, label %.preheader.lr.ph, label %.preheader37.us, !llvm.loop !83

.preheader.lr.ph:                                 ; preds = %._crit_edge.us
  %16 = lshr i64 %3, 1
  %wide.trip.count55 = zext nneg i32 %4 to i64
  br label %.preheader.us

.preheader.us:                                    ; preds = %.preheader.lr.ph, %._crit_edge.us48
  %.02746.us = phi i32 [ %20, %._crit_edge.us48 ], [ 0, %.preheader.lr.ph ]
  %.03145.us = phi ptr [ %19, %._crit_edge.us48 ], [ %1, %.preheader.lr.ph ]
  br label %17

17:                                               ; preds = %.preheader.us, %17
  %indvars.iv52 = phi i64 [ 0, %.preheader.us ], [ %indvars.iv.next53, %17 ]
  %18 = getelementptr inbounds nuw i16, ptr %.03145.us, i64 %indvars.iv52
  store i16 %..1.us, ptr %18, align 2, !tbaa !66
  %indvars.iv.next53 = add nuw nsw i64 %indvars.iv52, 1
  %exitcond56.not = icmp eq i64 %indvars.iv.next53, %wide.trip.count55
  br i1 %exitcond56.not, label %._crit_edge.us48, label %17, !llvm.loop !84

._crit_edge.us48:                                 ; preds = %17
  %19 = getelementptr inbounds nuw i16, ptr %.03145.us, i64 %16
  %20 = add nuw nsw i32 %.02746.us, 1
  %exitcond57.not = icmp eq i32 %20, %5
  br i1 %exitcond57.not, label %._crit_edge47, label %.preheader.us, !llvm.loop !85

._crit_edge47:                                    ; preds = %._crit_edge.us48, %.preheader37.lr.ph, %6
  ret i32 0
}